target datalayout = "e-m:e-p270:32:32-p271:32:32-p272:64:64-i64:64-i128:128-f80:128-n8:16:32:64-S128"
target triple = "x86_64-pc-linux-gnu"

%struct.H5CX_node_t = type { %struct.H5CX_t, ptr }
%struct.H5CX_t = type { i64, ptr, i64, ptr, i64, ptr, i64, ptr, i64, ptr, i64, ptr, i64, i32, i64, i8, ptr, i8, ptr, i8, i32, i8, [3 x double], i8, i64, i8, i32, i8, %struct.H5Z_cb_t, i8, ptr, i8, %struct.H5T_vlen_alloc_info_t, i8, %struct.H5T_conv_cb_t, i8, i32, i8, i8, i8, i32, i8, i8, i32, i8, i8, i32, i8, i32, i8, i64, i8, i8, i8, i8, i8, ptr, i8, ptr, i8, i32, i8, i32, i8, %struct.H5VL_connector_prop_t, i8, ptr, i8 }
%struct.H5Z_cb_t = type { ptr, ptr }
%struct.H5T_vlen_alloc_info_t = type { ptr, ptr, ptr, ptr }
%struct.H5T_conv_cb_t = type { ptr, ptr }
%struct.H5VL_connector_prop_t = type { ptr, ptr }
%struct.H5VL_optional_args_t = type { i32, ptr }
%union.H5VL_native_file_optional_args_t = type { %struct.H5VL_native_file_get_page_buffering_stats_t }
%struct.H5VL_native_file_get_page_buffering_stats_t = type { ptr, ptr, ptr, ptr, ptr }
%struct.H5VL_native_file_set_libver_bounds_t = type { i32, i32 }

@H5_libinit_g = external global i8, align 1
@H5_libterm_g = external global i8, align 1
@.str = private unnamed_addr constant [97 x i8] c"generated/home/dtcxzyw/WorkSpace/Projects/compilers/llvm-opt-benchmark/bench/hdf5/hdf5/src/H5F.c\00", align 1
@H5E_FUNC_g = external global i64, align 8
@H5E_CANTINIT_g = external global i64, align 8
@.str.1 = private unnamed_addr constant [30 x i8] c"library initialization failed\00", align 1
@H5F_init_g = external global i8, align 1
@.str.2 = private unnamed_addr constant [32 x i8] c"interface initialization failed\00", align 1
@H5E_CANTSET_g = external global i64, align 8
@.str.3 = private unnamed_addr constant [22 x i8] c"can't set API context\00", align 1
@H5P_LST_DATASET_XFER_ID_g = external global i64, align 8
@H5E_FILE_g = external global i64, align 8
@H5E_BADVALUE_g = external global i64, align 8
@.str.45 = private unnamed_addr constant [14 x i8] c"not a file ID\00", align 1
@.str.63 = private unnamed_addr constant [40 x i8] c"can't set collective metadata read info\00", align 1
@__func__.H5Fset_libver_bounds = private unnamed_addr constant [21 x i8] c"H5Fset_libver_bounds\00", align 1
@.str.106 = private unnamed_addr constant [33 x i8] c"can't set library version bounds\00", align 1

; Function Attrs: nounwind uwtable
define i32 @H5Fset_libver_bounds(i64 noundef %0, i32 noundef %1, i32 noundef %2) #0 {
  %4 = alloca i64, align 8
  %5 = alloca i32, align 4
  %6 = alloca i32, align 4
  %7 = alloca ptr, align 8
  %8 = alloca %struct.H5VL_optional_args_t, align 8
  %9 = alloca %union.H5VL_native_file_optional_args_t, align 8
  %10 = alloca i32, align 4
  %11 = alloca %struct.H5CX_node_t, align 8
  %12 = alloca i8, align 1
  %13 = alloca i8, align 1
  store i64 %0, ptr %4, align 8, !tbaa !3
  store i32 %1, ptr %5, align 4, !tbaa !18
  store i32 %2, ptr %6, align 4, !tbaa !18
  call void @llvm.lifetime.start.p0(i64 8, ptr %7) #5
  call void @llvm.lifetime.start.p0(i64 16, ptr %8) #5
  call void @llvm.lifetime.start.p0(i64 40, ptr %9) #5
  call void @llvm.lifetime.start.p0(i64 4, ptr %10) #5
  store i32 0, ptr %10, align 4, !tbaa !18
  call void @llvm.lifetime.start.p0(i64 480, ptr %11) #5
  call void @llvm.memset.p0.i64(ptr align 8 %11, i8 0, i64 480, i1 false)
  call void @llvm.lifetime.start.p0(i64 1, ptr %12) #5
  store i8 0, ptr %12, align 1, !tbaa !7
  call void @llvm.lifetime.start.p0(i64 1, ptr %13) #5
  store i8 0, ptr %13, align 1, !tbaa !7
  br label %14

14:                                               ; preds = %3
  %15 = load i8, ptr @H5_libinit_g, align 1, !tbaa !7, !range !9, !noundef !10
  %16 = trunc i8 %15 to i1
  br i1 %16, label %21, label %17

17:                                               ; preds = %14
  %18 = load i8, ptr @H5_libterm_g, align 1, !tbaa !7, !range !9, !noundef !10
  %19 = trunc i8 %18 to i1
  %20 = xor i1 %19, true
  br label %21

21:                                               ; preds = %17, %14
  %22 = phi i1 [ false, %14 ], [ %20, %17 ]
  %23 = xor i1 %22, true
  %24 = xor i1 %23, true
  %25 = zext i1 %24 to i32
  %26 = sext i32 %25 to i64
  %27 = call i64 @llvm.expect.i64(i64 %26, i64 0)
  %28 = icmp ne i64 %27, 0
  br i1 %28, label %29, label %58

29:                                               ; preds = %21
  %30 = call i32 @H5_init_library()
  %31 = icmp slt i32 %30, 0
  %32 = xor i1 %31, true
  %33 = xor i1 %32, true
  %34 = zext i1 %33 to i32
  %35 = sext i32 %34 to i64
  %36 = call i64 @llvm.expect.i64(i64 %35, i64 0)
  %37 = icmp ne i64 %36, 0
  br i1 %37, label %38, label %57

38:                                               ; preds = %29
  br label %39

39:                                               ; preds = %38
  br label %40

40:                                               ; preds = %39
  br label %41

41:                                               ; preds = %40
  %42 = load i64, ptr @H5E_FUNC_g, align 8, !tbaa !3
  %43 = load i64, ptr @H5E_CANTINIT_g, align 8, !tbaa !3
  %44 = call i32 (ptr, ptr, i32, i64, i64, ptr, ...) @H5E_printf_stack(ptr noundef @.str, ptr noundef @__func__.H5Fset_libver_bounds, i32 noundef 2399, i64 noundef %42, i64 noundef %43, ptr noundef @.str.1)
  br label %45

45:                                               ; preds = %41
  br label %46

46:                                               ; preds = %45
  store i8 1, ptr %13, align 1, !tbaa !7
  %47 = load i8, ptr %13, align 1, !tbaa !7, !range !9, !noundef !10
  %48 = trunc i8 %47 to i1
  %49 = zext i1 %48 to i8
  store i8 %49, ptr %13, align 1, !tbaa !7
  br label %50

50:                                               ; preds = %46
  br label %51

51:                                               ; preds = %50
  br label %52

52:                                               ; preds = %51
  store i32 -1, ptr %10, align 4, !tbaa !18
  br label %208

53:                                               ; No predecessors!
  br label %54

54:                                               ; preds = %53
  br label %55

55:                                               ; preds = %54
  br label %56

56:                                               ; preds = %55
  br label %57

57:                                               ; preds = %56, %29
  br label %58

58:                                               ; preds = %57, %21
  %59 = load i8, ptr @H5F_init_g, align 1, !tbaa !7, !range !9, !noundef !10
  %60 = trunc i8 %59 to i1
  br i1 %60, label %65, label %61

61:                                               ; preds = %58
  %62 = load i8, ptr @H5_libterm_g, align 1, !tbaa !7, !range !9, !noundef !10
  %63 = trunc i8 %62 to i1
  %64 = xor i1 %63, true
  br label %65

65:                                               ; preds = %61, %58
  %66 = phi i1 [ false, %58 ], [ %64, %61 ]
  %67 = xor i1 %66, true
  %68 = xor i1 %67, true
  %69 = zext i1 %68 to i32
  %70 = sext i32 %69 to i64
  %71 = call i64 @llvm.expect.i64(i64 %70, i64 0)
  %72 = icmp ne i64 %71, 0
  br i1 %72, label %73, label %96

73:                                               ; preds = %65
  store i8 1, ptr @H5F_init_g, align 1, !tbaa !7
  %74 = call i32 @H5F__init_package()
  %75 = icmp slt i32 %74, 0
  br i1 %75, label %76, label %95

76:                                               ; preds = %73
  store i8 0, ptr @H5F_init_g, align 1, !tbaa !7
  br label %77

77:                                               ; preds = %76
  br label %78

78:                                               ; preds = %77
  br label %79

79:                                               ; preds = %78
  %80 = load i64, ptr @H5E_FUNC_g, align 8, !tbaa !3
  %81 = load i64, ptr @H5E_CANTINIT_g, align 8, !tbaa !3
  %82 = call i32 (ptr, ptr, i32, i64, i64, ptr, ...) @H5E_printf_stack(ptr noundef @.str, ptr noundef @__func__.H5Fset_libver_bounds, i32 noundef 2399, i64 noundef %80, i64 noundef %81, ptr noundef @.str.2)
  br label %83

83:                                               ; preds = %79
  br label %84

84:                                               ; preds = %83
  store i8 1, ptr %13, align 1, !tbaa !7
  %85 = load i8, ptr %13, align 1, !tbaa !7, !range !9, !noundef !10
  %86 = trunc i8 %85 to i1
  %87 = zext i1 %86 to i8
  store i8 %87, ptr %13, align 1, !tbaa !7
  br label %88

88:                                               ; preds = %84
  br label %89

89:                                               ; preds = %88
  br label %90

90:                                               ; preds = %89
  store i32 -1, ptr %10, align 4, !tbaa !18
  br label %208

91:                                               ; No predecessors!
  br label %92

92:                                               ; preds = %91
  br label %93

93:                                               ; preds = %92
  br label %94

94:                                               ; preds = %93
  br label %95

95:                                               ; preds = %94, %73
  br label %96

96:                                               ; preds = %95, %65
  br label %97

97:                                               ; preds = %96
  br label %98

98:                                               ; preds = %97
  br label %99

99:                                               ; preds = %98
  %100 = call i32 @H5CX_push(ptr noundef %11)
  %101 = icmp slt i32 %100, 0
  %102 = xor i1 %101, true
  %103 = xor i1 %102, true
  %104 = zext i1 %103 to i32
  %105 = sext i32 %104 to i64
  %106 = call i64 @llvm.expect.i64(i64 %105, i64 0)
  %107 = icmp ne i64 %106, 0
  br i1 %107, label %108, label %127

108:                                              ; preds = %99
  br label %109

109:                                              ; preds = %108
  br label %110

110:                                              ; preds = %109
  br label %111

111:                                              ; preds = %110
  %112 = load i64, ptr @H5E_FUNC_g, align 8, !tbaa !3
  %113 = load i64, ptr @H5E_CANTSET_g, align 8, !tbaa !3
  %114 = call i32 (ptr, ptr, i32, i64, i64, ptr, ...) @H5E_printf_stack(ptr noundef @.str, ptr noundef @__func__.H5Fset_libver_bounds, i32 noundef 2399, i64 noundef %112, i64 noundef %113, ptr noundef @.str.3)
  br label %115

115:                                              ; preds = %111
  br label %116

116:                                              ; preds = %115
  store i8 1, ptr %13, align 1, !tbaa !7
  %117 = load i8, ptr %13, align 1, !tbaa !7, !range !9, !noundef !10
  %118 = trunc i8 %117 to i1
  %119 = zext i1 %118 to i8
  store i8 %119, ptr %13, align 1, !tbaa !7
  br label %120

120:                                              ; preds = %116
  br label %121

121:                                              ; preds = %120
  br label %122

122:                                              ; preds = %121
  store i32 -1, ptr %10, align 4, !tbaa !18
  br label %208

123:                                              ; No predecessors!
  br label %124

124:                                              ; preds = %123
  br label %125

125:                                              ; preds = %124
  br label %126

126:                                              ; preds = %125
  br label %128

127:                                              ; preds = %99
  store i8 1, ptr %12, align 1, !tbaa !7
  br label %128

128:                                              ; preds = %127, %126
  br label %129

129:                                              ; preds = %128
  br label %130

130:                                              ; preds = %129
  %131 = call i32 @H5E_clear_stack()
  %132 = load i64, ptr %4, align 8, !tbaa !3
  %133 = call ptr @H5VL_vol_object_verify(i64 noundef %132, i32 noundef 1)
  store ptr %133, ptr %7, align 8, !tbaa !11
  %134 = icmp eq ptr null, %133
  br i1 %134, label %135, label %154

135:                                              ; preds = %130
  br label %136

136:                                              ; preds = %135
  br label %137

137:                                              ; preds = %136
  br label %138

138:                                              ; preds = %137
  %139 = load i64, ptr @H5E_FILE_g, align 8, !tbaa !3
  %140 = load i64, ptr @H5E_BADVALUE_g, align 8, !tbaa !3
  %141 = call i32 (ptr, ptr, i32, i64, i64, ptr, ...) @H5E_printf_stack(ptr noundef @.str, ptr noundef @__func__.H5Fset_libver_bounds, i32 noundef 2403, i64 noundef %139, i64 noundef %140, ptr noundef @.str.45)
  br label %142

142:                                              ; preds = %138
  br label %143

143:                                              ; preds = %142
  store i8 1, ptr %13, align 1, !tbaa !7
  %144 = load i8, ptr %13, align 1, !tbaa !7, !range !9, !noundef !10
  %145 = trunc i8 %144 to i1
  %146 = zext i1 %145 to i8
  store i8 %146, ptr %13, align 1, !tbaa !7
  br label %147

147:                                              ; preds = %143
  br label %148

148:                                              ; preds = %147
  br label %149

149:                                              ; preds = %148
  store i32 -1, ptr %10, align 4, !tbaa !18
  br label %208

150:                                              ; No predecessors!
  br label %151

151:                                              ; preds = %150
  br label %152

152:                                              ; preds = %151
  br label %153

153:                                              ; preds = %152
  br label %154

154:                                              ; preds = %153, %130
  %155 = load i64, ptr %4, align 8, !tbaa !3
  %156 = call i32 @H5CX_set_loc(i64 noundef %155)
  %157 = icmp slt i32 %156, 0
  br i1 %157, label %158, label %177

158:                                              ; preds = %154
  br label %159

159:                                              ; preds = %158
  br label %160

160:                                              ; preds = %159
  br label %161

161:                                              ; preds = %160
  %162 = load i64, ptr @H5E_FILE_g, align 8, !tbaa !3
  %163 = load i64, ptr @H5E_CANTSET_g, align 8, !tbaa !3
  %164 = call i32 (ptr, ptr, i32, i64, i64, ptr, ...) @H5E_printf_stack(ptr noundef @.str, ptr noundef @__func__.H5Fset_libver_bounds, i32 noundef 2407, i64 noundef %162, i64 noundef %163, ptr noundef @.str.63)
  br label %165

165:                                              ; preds = %161
  br label %166

166:                                              ; preds = %165
  store i8 1, ptr %13, align 1, !tbaa !7
  %167 = load i8, ptr %13, align 1, !tbaa !7, !range !9, !noundef !10
  %168 = trunc i8 %167 to i1
  %169 = zext i1 %168 to i8
  store i8 %169, ptr %13, align 1, !tbaa !7
  br label %170

170:                                              ; preds = %166
  br label %171

171:                                              ; preds = %170
  br label %172

172:                                              ; preds = %171
  store i32 -1, ptr %10, align 4, !tbaa !18
  br label %208

173:                                              ; No predecessors!
  br label %174

174:                                              ; preds = %173
  br label %175

175:                                              ; preds = %174
  br label %176

176:                                              ; preds = %175
  br label %177

177:                                              ; preds = %176, %154
  %178 = load i32, ptr %5, align 4, !tbaa !18
  %179 = getelementptr inbounds nuw %struct.H5VL_native_file_set_libver_bounds_t, ptr %9, i32 0, i32 0
  store i32 %178, ptr %179, align 8, !tbaa !17
  %180 = load i32, ptr %6, align 4, !tbaa !18
  %181 = getelementptr inbounds nuw %struct.H5VL_native_file_set_libver_bounds_t, ptr %9, i32 0, i32 1
  store i32 %180, ptr %181, align 4, !tbaa !17
  %182 = getelementptr inbounds nuw %struct.H5VL_optional_args_t, ptr %8, i32 0, i32 0
  store i32 23, ptr %182, align 8, !tbaa !29
  %183 = getelementptr inbounds nuw %struct.H5VL_optional_args_t, ptr %8, i32 0, i32 1
  store ptr %9, ptr %183, align 8, !tbaa !31
  %184 = load ptr, ptr %7, align 8, !tbaa !11
  %185 = load i64, ptr @H5P_LST_DATASET_XFER_ID_g, align 8, !tbaa !3
  %186 = call i32 @H5VL_file_optional(ptr noundef %184, ptr noundef %8, i64 noundef %185, ptr noundef null)
  %187 = icmp slt i32 %186, 0
  br i1 %187, label %188, label %207

188:                                              ; preds = %177
  br label %189

189:                                              ; preds = %188
  br label %190

190:                                              ; preds = %189
  br label %191

191:                                              ; preds = %190
  %192 = load i64, ptr @H5E_FILE_g, align 8, !tbaa !3
  %193 = load i64, ptr @H5E_CANTSET_g, align 8, !tbaa !3
  %194 = call i32 (ptr, ptr, i32, i64, i64, ptr, ...) @H5E_printf_stack(ptr noundef @.str, ptr noundef @__func__.H5Fset_libver_bounds, i32 noundef 2417, i64 noundef %192, i64 noundef %193, ptr noundef @.str.106)
  br label %195

195:                                              ; preds = %191
  br label %196

196:                                              ; preds = %195
  store i8 1, ptr %13, align 1, !tbaa !7
  %197 = load i8, ptr %13, align 1, !tbaa !7, !range !9, !noundef !10
  %198 = trunc i8 %197 to i1
  %199 = zext i1 %198 to i8
  store i8 %199, ptr %13, align 1, !tbaa !7
  br label %200

200:                                              ; preds = %196
  br label %201

201:                                              ; preds = %200
  br label %202

202:                                              ; preds = %201
  store i32 -1, ptr %10, align 4, !tbaa !18
  br label %208

203:                                              ; No predecessors!
  br label %204

204:                                              ; preds = %203
  br label %205

205:                                              ; preds = %204
  br label %206

206:                                              ; preds = %205
  br label %207

207:                                              ; preds = %206, %177
  br label %208

208:                                              ; preds = %207, %202, %172, %149, %122, %90, %52
  %209 = load i8, ptr %12, align 1, !tbaa !7, !range !9, !noundef !10
  %210 = trunc i8 %209 to i1
  %211 = xor i1 %210, true
  %212 = xor i1 %211, true
  %213 = zext i1 %212 to i32
  %214 = sext i32 %213 to i64
  %215 = call i64 @llvm.expect.i64(i64 %214, i64 1)
  %216 = icmp ne i64 %215, 0
  br i1 %216, label %217, label %219

217:                                              ; preds = %208
  %218 = call i32 @H5CX_pop(i1 noundef zeroext true)
  store i8 0, ptr %12, align 1, !tbaa !7
  br label %219

219:                                              ; preds = %217, %208
  %220 = load i8, ptr %13, align 1, !tbaa !7, !range !9, !noundef !10
  %221 = trunc i8 %220 to i1
  %222 = xor i1 %221, true
  %223 = xor i1 %222, true
  %224 = zext i1 %223 to i32
  %225 = sext i32 %224 to i64
  %226 = call i64 @llvm.expect.i64(i64 %225, i64 0)
  %227 = icmp ne i64 %226, 0
  br i1 %227, label %228, label %230

228:                                              ; preds = %219
  %229 = call i32 @H5E_dump_api_stack()
  br label %230

230:                                              ; preds = %228, %219
  %231 = load i32, ptr %10, align 4, !tbaa !18
  call void @llvm.lifetime.end.p0(i64 1, ptr %13) #5
  call void @llvm.lifetime.end.p0(i64 1, ptr %12) #5
  call void @llvm.lifetime.end.p0(i64 480, ptr %11) #5
  call void @llvm.lifetime.end.p0(i64 4, ptr %10) #5
  call void @llvm.lifetime.end.p0(i64 40, ptr %9) #5
  call void @llvm.lifetime.end.p0(i64 16, ptr %8) #5
  call void @llvm.lifetime.end.p0(i64 8, ptr %7) #5
  ret i32 %231
}